target datalayout = "e-m:e-p270:32:32-p271:32:32-p272:64:64-i64:64-i128:128-f80:128-n8:16:32:64-S128"
target triple = "x86_64-pc-linux-gnu"

%struct.zlib_writer = type { %struct.Curl_cwriter, i32, [16384 x i8], i32, %struct.z_stream_s }
%struct.Curl_cwriter = type { ptr, ptr, ptr, i32 }
%struct.z_stream_s = type { ptr, i32, i64, ptr, i32, i64, ptr, ptr, ptr, ptr, ptr, i32, i64, i64 }

@.str.13 = private unnamed_addr constant [46 x i8] c"Error while processing content unencoding: %s\00", align 1
@.str.14 = private unnamed_addr constant [90 x i8] c"Error while processing content unencoding: Unknown failure within decompression software.\00", align 1

; Function Attrs: nounwind uwtable
define internal i32 @process_zlib_error(ptr noundef %0, ptr noundef %1) #0 {
  %3 = alloca ptr, align 8
  %4 = alloca ptr, align 8
  store ptr %0, ptr %3, align 8, !tbaa !20
  store ptr %1, ptr %4, align 8, !tbaa !105
  %5 = load ptr, ptr %4, align 8, !tbaa !105
  %6 = getelementptr inbounds nuw %struct.z_stream_s, ptr %5, i32 0, i32 6
  %7 = load ptr, ptr %6, align 8, !tbaa !118
  %8 = icmp ne ptr %7, null
  br i1 %8, label %9, label %14

9:                                                ; preds = %2
  %10 = load ptr, ptr %3, align 8, !tbaa !20
  %11 = load ptr, ptr %4, align 8, !tbaa !105
  %12 = getelementptr inbounds nuw %struct.z_stream_s, ptr %11, i32 0, i32 6
  %13 = load ptr, ptr %12, align 8, !tbaa !118
  call void (ptr, ptr, ...) @Curl_failf(ptr noundef %10, ptr noundef @.str.13, ptr noundef %13)
  br label %16

14:                                               ; preds = %2
  %15 = load ptr, ptr %3, align 8, !tbaa !20
  call void (ptr, ptr, ...) @Curl_failf(ptr noundef %15, ptr noundef @.str.14)
  br label %16

16:                                               ; preds = %14, %9
  ret i32 61
}

; Function Attrs: nounwind uwtable
define internal i32 @exit_zlib(ptr noundef %0, ptr noundef %1, ptr noundef %2, i32 noundef %3) #0 {
  %5 = alloca ptr, align 8
  %6 = alloca ptr, align 8
  %7 = alloca ptr, align 8
  %8 = alloca i32, align 4
  store ptr %0, ptr %5, align 8, !tbaa !20
  store ptr %1, ptr %6, align 8, !tbaa !105
  store ptr %2, ptr %7, align 8, !tbaa !117
  store i32 %3, ptr %8, align 4, !tbaa !22
  %9 = load ptr, ptr %7, align 8, !tbaa !117
  %10 = load i32, ptr %9, align 4, !tbaa !22
  %11 = icmp ne i32 %10, 0
  br i1 %11, label %12, label %25

12:                                               ; preds = %4
  %13 = load ptr, ptr %6, align 8, !tbaa !105
  %14 = call i32 @inflateEnd(ptr noundef %13)
  %15 = icmp ne i32 %14, 0
  br i1 %15, label %16, label %23

16:                                               ; preds = %12
  %17 = load i32, ptr %8, align 4, !tbaa !22
  %18 = icmp eq i32 %17, 0
  br i1 %18, label %19, label %23

19:                                               ; preds = %16
  %20 = load ptr, ptr %5, align 8, !tbaa !20
  %21 = load ptr, ptr %6, align 8, !tbaa !105
  %22 = call i32 @process_zlib_error(ptr noundef %20, ptr noundef %21)
  store i32 %22, ptr %8, align 4, !tbaa !22
  br label %23

23:                                               ; preds = %19, %16, %12
  %24 = load ptr, ptr %7, align 8, !tbaa !117
  store i32 0, ptr %24, align 4, !tbaa !22
  br label %25

25:                                               ; preds = %23, %4
  %26 = load i32, ptr %8, align 4, !tbaa !22
  ret i32 %26
}

; Function Attrs: nounwind uwtable
define internal i32 @gzip_do_write(ptr noundef %0, ptr noundef %1, i32 noundef %2, ptr noundef %3, i64 noundef %4) #0 {
  %6 = alloca i32, align 4
  %7 = alloca ptr, align 8
  %8 = alloca ptr, align 8
  %9 = alloca i32, align 4
  %10 = alloca ptr, align 8
  %11 = alloca i64, align 8
  %12 = alloca ptr, align 8
  %13 = alloca ptr, align 8
  %14 = alloca i32, align 4
  store ptr %0, ptr %7, align 8, !tbaa !20
  store ptr %1, ptr %8, align 8, !tbaa !98
  store i32 %2, ptr %9, align 4, !tbaa !22
  store ptr %3, ptr %10, align 8, !tbaa !3
  store i64 %4, ptr %11, align 8, !tbaa !8
  call void @llvm.lifetime.start.p0(i64 8, ptr %12) #5
  %15 = load ptr, ptr %8, align 8, !tbaa !98
  store ptr %15, ptr %12, align 8, !tbaa !103
  call void @llvm.lifetime.start.p0(i64 8, ptr %13) #5
  %16 = load ptr, ptr %12, align 8, !tbaa !103
  %17 = getelementptr inbounds nuw %struct.zlib_writer, ptr %16, i32 0, i32 4
  store ptr %17, ptr %13, align 8, !tbaa !105
  %18 = load i32, ptr %9, align 4, !tbaa !22
  %19 = and i32 %18, 1
  %20 = icmp ne i32 %19, 0
  br i1 %20, label %21, label %24

21:                                               ; preds = %5
  %22 = load i64, ptr %11, align 8, !tbaa !8
  %23 = icmp ne i64 %22, 0
  br i1 %23, label %33, label %24

24:                                               ; preds = %21, %5
  %25 = load ptr, ptr %7, align 8, !tbaa !20
  %26 = load ptr, ptr %8, align 8, !tbaa !98
  %27 = getelementptr inbounds nuw %struct.Curl_cwriter, ptr %26, i32 0, i32 1
  %28 = load ptr, ptr %27, align 8, !tbaa !114
  %29 = load i32, ptr %9, align 4, !tbaa !22
  %30 = load ptr, ptr %10, align 8, !tbaa !3
  %31 = load i64, ptr %11, align 8, !tbaa !8
  %32 = call i32 @Curl_cwriter_write(ptr noundef %25, ptr noundef %28, i32 noundef %29, ptr noundef %30, i64 noundef %31)
  store i32 %32, ptr %6, align 4
  store i32 1, ptr %14, align 4
  br label %56

33:                                               ; preds = %21
  %34 = load ptr, ptr %12, align 8, !tbaa !103
  %35 = getelementptr inbounds nuw %struct.zlib_writer, ptr %34, i32 0, i32 1
  %36 = load i32, ptr %35, align 8, !tbaa !111
  %37 = icmp eq i32 %36, 4
  br i1 %37, label %38, label %50

38:                                               ; preds = %33
  %39 = load ptr, ptr %10, align 8, !tbaa !3
  %40 = load ptr, ptr %13, align 8, !tbaa !105
  %41 = getelementptr inbounds nuw %struct.z_stream_s, ptr %40, i32 0, i32 0
  store ptr %39, ptr %41, align 8, !tbaa !115
  %42 = load i64, ptr %11, align 8, !tbaa !8
  %43 = trunc i64 %42 to i32
  %44 = load ptr, ptr %13, align 8, !tbaa !105
  %45 = getelementptr inbounds nuw %struct.z_stream_s, ptr %44, i32 0, i32 1
  store i32 %43, ptr %45, align 8, !tbaa !116
  %46 = load ptr, ptr %7, align 8, !tbaa !20
  %47 = load ptr, ptr %8, align 8, !tbaa !98
  %48 = load i32, ptr %9, align 4, !tbaa !22
  %49 = call i32 @inflate_stream(ptr noundef %46, ptr noundef %47, i32 noundef %48, i32 noundef 4)
  store i32 %49, ptr %6, align 4
  store i32 1, ptr %14, align 4
  br label %56

50:                                               ; preds = %33
  %51 = load ptr, ptr %7, align 8, !tbaa !20
  %52 = load ptr, ptr %13, align 8, !tbaa !105
  %53 = load ptr, ptr %12, align 8, !tbaa !103
  %54 = getelementptr inbounds nuw %struct.zlib_writer, ptr %53, i32 0, i32 1
  %55 = call i32 @exit_zlib(ptr noundef %51, ptr noundef %52, ptr noundef %54, i32 noundef 23)
  store i32 %55, ptr %6, align 4
  store i32 1, ptr %14, align 4
  br label %56

56:                                               ; preds = %50, %38, %24
  call void @llvm.lifetime.end.p0(i64 8, ptr %13) #5
  call void @llvm.lifetime.end.p0(i64 8, ptr %12) #5
  %57 = load i32, ptr %6, align 4
  ret i32 %57
}