; Function Attrs: nounwind uwtable
define internal i32 @gzip_do_write(ptr noundef %0, ptr noundef %1, i32 noundef %2, ptr noundef %3, i64 noundef %4) #0 {
  %6 = getelementptr inbounds nuw i8, ptr %1, i64 16424
  %7 = and i32 %2, 1
  %8 = icmp ne i32 %7, 0
  %9 = icmp ne i64 %4, 0
  %or.cond = and i1 %8, %9
  br i1 %or.cond, label %14, label %10

10:                                               ; preds = %5
  %11 = getelementptr inbounds nuw i8, ptr %1, i64 8
  %12 = load ptr, ptr %11, align 8, !tbaa !98
  %13 = tail call i32 @Curl_cwriter_write(ptr noundef %0, ptr noundef %12, i32 noundef %2, ptr noundef %3, i64 noundef %4) #8
  br label %exit_zlib.exit

14:                                               ; preds = %5
  %15 = getelementptr inbounds nuw i8, ptr %1, i64 32
  %16 = load i32, ptr %15, align 8, !tbaa !95
  switch i32 %16, label %21 [
    i32 4, label %17
    i32 0, label %exit_zlib.exit
  ]

17:                                               ; preds = %14
  store ptr %3, ptr %6, align 8, !tbaa !99
  %18 = trunc i64 %4 to i32
  %19 = getelementptr inbounds nuw i8, ptr %1, i64 16432
  store i32 %18, ptr %19, align 8, !tbaa !100
  %20 = tail call fastcc i32 @inflate_stream(ptr noundef %0, ptr noundef nonnull %1, i32 noundef %2, i32 noundef 4)
  br label %exit_zlib.exit

21:                                               ; preds = %14
  %22 = tail call i32 @inflateEnd(ptr noundef nonnull %6) #8
  store i32 0, ptr %15, align 4, !tbaa !101
  br label %exit_zlib.exit

exit_zlib.exit:                                   ; preds = %14, %21, %17, %10
  %.0 = phi i32 [ %20, %17 ], [ %13, %10 ], [ 23, %21 ], [ 23, %14 ]
  ret i32 %.0
}